; Function Attrs: mustprogress nofree nosync nounwind memory(readwrite, inaccessiblemem: none) uwtable
define dso_local void @_ZN4Luau7CodeGen4killERNS0_10IrFunctionEjj(ptr noundef nonnull align 8 dereferenceable(624) %0, i32 noundef %1, i32 noundef %2) local_unnamed_addr #2 {
  %.not8 = icmp slt i32 %2, %1
  br i1 %.not8, label %._crit_edge, label %.lr.ph

.lr.ph:                                           ; preds = %3
  %4 = getelementptr inbounds nuw i8, ptr %0, i64 24
  %5 = sext i32 %2 to i64
  %6 = sext i32 %1 to i64
  br label %7

._crit_edge:                                      ; preds = %13, %3
  ret void

7:                                                ; preds = %.lr.ph, %13
  %indvars.iv = phi i64 [ %5, %.lr.ph ], [ %indvars.iv.next, %13 ]
  %8 = load ptr, ptr %4, align 8, !tbaa !4
  %9 = getelementptr inbounds nuw %"struct.Luau::CodeGen::IrInst", ptr %8, i64 %indvars.iv
  %10 = load i8, ptr %9, align 4, !tbaa !32
  %11 = icmp eq i8 %10, 0
  br i1 %11, label %13, label %12

12:                                               ; preds = %7
  tail call void @_ZN4Luau7CodeGen4killERNS0_10IrFunctionERNS0_6IrInstE(ptr noundef nonnull align 8 dereferenceable(624) %0, ptr noundef nonnull align 4 dereferenceable(43) %9)
  br label %13

13:                                               ; preds = %7, %12
  %indvars.iv.next = add nsw i64 %indvars.iv, -1
  %.not.not = icmp sgt i64 %indvars.iv, %6
  br i1 %.not.not, label %7, label %._crit_edge, !llvm.loop !33
}